{
   OpenMPI1
   Memcheck:Addr8
   fun:_wordcopy_fwd_dest_aligned
   fun:__GI_memmove
   fun:argz_insert
   fun:lt_argz_insert
   fun:lt_argz_insertinorder
   fun:lt_argz_insertdir
   fun:list_files_by_dir
   fun:foreachfile_callback
   fun:foreach_dirinpath
   fun:lt_dlforeachfile
   fun:mca_base_component_find
   fun:mca_base_components_open
}
{
   OpenMPI2
   Memcheck:Param
   writev(vector[...])
   fun:writev
   fun:mca_oob_tcp_msg_send_handler
   fun:mca_oob_tcp_peer_send
   fun:mca_oob_tcp_send_nb
   fun:orte_rml_oob_send
   fun:orte_rml_oob_send_buffer
   fun:modex
   fun:ompi_mpi_init
   fun:PMPI_Init
   fun:_ZN7libMesh5_initERiRPPcP19ompi_communicator_t
   fun:_ZN9MooseInitC1EiPPcP19ompi_communicator_t
   fun:main
}
{
   getpwuid
   Memcheck:Leak
   fun:malloc
   fun:nss_parse_service_list
   fun:__nss_database_lookup
   obj:*
   fun:getpwuid_r@@GLIBC_2.2.5
   fun:getpwuid
}
{
   process_constraints_tbb_scalable_allocator
   Memcheck:Cond
   fun:_ZN3rml8internal13isLargeObjectEPv
   fun:scalable_free
   fun:_ZNSt8_Rb_treeIjSt4pairIKjdESt10_Select1stIS2_ESt4lessIjEN7libMesh7Threads18scalable_allocatorIS2_EEE12_M_erase_auxESt23_Rb_tree_const_iteratorIS2_E
   fun:_ZNSt8_Rb_treeIjSt4pairIKjdESt10_Select1stIS2_ESt4lessIjEN7libMesh7Threads18scalable_allocatorIS2_EEE5eraseERS1_
   fun:_ZN7libMesh6DofMap19process_constraintsERNS_8MeshBaseE
   fun:_ZN7libMesh6System9init_dataEv
   fun:_ZN7libMesh14ImplicitSystem9init_dataEv
   fun:_ZN7libMesh15TransientSystemINS_23NonlinearImplicitSystemEE9init_dataEv
   fun:_ZN7libMesh6System4initEv
   fun:_ZN7libMesh15EquationSystems4initEv
   fun:_ZN9FEProblem4initEv
   fun:_ZN15ActionWarehouse24executeActionsWithActionERKSs
}
{
   sparsity_pattern_build_tbb_scalable_allocator
   Memcheck:Cond
   fun:_ZN3rml8internal13isLargeObjectEPv
   fun:scalable_free
   fun:_ZN7libMesh15SparsityPattern5BuildD0Ev
   fun:_ZN7libMesh6DofMap16compute_sparsityERKNS_8MeshBaseE
   fun:_ZN7libMesh14ImplicitSystem13init_matricesEv
   fun:_ZN7libMesh15TransientSystemINS_23NonlinearImplicitSystemEE9init_dataEv
   fun:_ZN7libMesh6System4initEv
   fun:_ZN7libMesh15EquationSystems4initEv
   fun:_ZN9FEProblem4initEv
   fun:_ZN15ActionWarehouse24executeActionsWithActionERKSs
   fun:_ZN15ActionWarehouse17executeAllActionsEv
   fun:_ZN8MooseApp12runInputFileEv
}
{
   dofmap_clear_tbb_scalable_allocator
   Memcheck:Cond
   fun:_ZN3rml8internal13isLargeObjectEPv
   fun:scalable_free
   fun:_ZNSt8_Rb_treeIjSt4pairIKjdESt10_Select1stIS2_ESt4lessIjEN7libMesh7Threads18scalable_allocatorIS2_EEE8_M_eraseEPSt13_Rb_tree_nodeIS2_E
   fun:_ZNSt8_Rb_treeIjSt4pairIKjSt3mapIjdSt4lessIjEN7libMesh7Threads18scalable_allocatorIS0_IS1_dEEEEESt10_Select1stISB_ES4_NS7_ISB_EEE8_M_eraseEPSt13_Rb_tree_nodeISB_E
   fun:_ZNSt8_Rb_treeIjSt4pairIKjSt3mapIjdSt4lessIjEN7libMesh7Threads18scalable_allocatorIS0_IS1_dEEEEESt10_Select1stISB_ES4_NS7_ISB_EEE8_M_eraseEPSt13_Rb_tree_nodeISB_E
   fun:_ZNSt8_Rb_treeIjSt4pairIKjSt3mapIjdSt4lessIjEN7libMesh7Threads18scalable_allocatorIS0_IS1_dEEEEESt10_Select1stISB_ES4_NS7_ISB_EEE8_M_eraseEPSt13_Rb_tree_nodeISB_E
   fun:_ZNSt8_Rb_treeIjSt4pairIKjSt3mapIjdSt4lessIjEN7libMesh7Threads18scalable_allocatorIS0_IS1_dEEEEESt10_Select1stISB_ES4_NS7_ISB_EEE8_M_eraseEPSt13_Rb_tree_nodeISB_E
   fun:_ZNSt8_Rb_treeIjSt4pairIKjSt3mapIjdSt4lessIjEN7libMesh7Threads18scalable_allocatorIS0_IS1_dEEEEESt10_Select1stISB_ES4_NS7_ISB_EEE8_M_eraseEPSt13_Rb_tree_nodeISB_E
   fun:_ZNSt8_Rb_treeIjSt4pairIKjSt3mapIjdSt4lessIjEN7libMesh7Threads18scalable_allocatorIS0_IS1_dEEEEESt10_Select1stISB_ES4_NS7_ISB_EEE8_M_eraseEPSt13_Rb_tree_nodeISB_E
   fun:_ZNSt8_Rb_treeIjSt4pairIKjSt3mapIjdSt4lessIjEN7libMesh7Threads18scalable_allocatorIS0_IS1_dEEEEESt10_Select1stISB_ES4_NS7_ISB_EEE8_M_eraseEPSt13_Rb_tree_nodeISB_E
   fun:_ZNSt8_Rb_treeIjSt4pairIKjSt3mapIjdSt4lessIjEN7libMesh7Threads18scalable_allocatorIS0_IS1_dEEEEESt10_Select1stISB_ES4_NS7_ISB_EEE8_M_eraseEPSt13_Rb_tree_nodeISB_E
   fun:_ZN7libMesh6DofMap5clearEv
}
